Certificate:
    Data:
        Version: 3 (0x2)
        Serial Number:
            d6:df:4f:69:d2:a1:8f:de
    Signature Algorithm: sha1WithRSAEncryption
        Issuer: C=US, ST=Missouri, O=Siri Proxy, CN=SiriProxyCA
        Validity
            Not Before: Dec 26 18:38:19 2014 GMT
            Not After : Dec 25 18:38:19 2017 GMT
        Subject: C=US, ST=Missouri, O=Siri Proxy, CN=SiriProxyCA
        Subject Public Key Info:
            Public Key Algorithm: rsaEncryption
                Public-Key: (1024 bit)
                Modulus:
                    00:d0:4a:c2:7b:1e:35:67:8f:79:95:d2:02:cf:f3:
                    79:37:0e:98:73:d5:eb:ed:12:55:8c:eb:a2:8b:bb:
                    22:4d:e0:40:74:32:b7:bd:c0:bd:11:2c:9e:43:34:
                    e6:ea:39:0f:62:c3:5e:a4:ba:73:0e:ca:cc:82:36:
                    3f:6c:69:0f:80:c8:1d:8a:73:dd:fa:84:48:28:f2:
                    f3:3c:5a:a1:9c:de:33:3f:a6:4f:4d:73:14:7c:b7:
                    ac:fe:40:3f:4a:5c:45:16:56:10:6b:29:c5:09:a1:
                    02:e0:a8:fc:78:61:34:53:6f:50:c7:0f:9a:df:f3:
                    2d:c4:1d:ce:b3:49:b1:37:4b
                Exponent: 65537 (0x10001)
        X509v3 extensions:
            X509v3 Subject Key Identifier: 
                B4:12:FD:E4:FC:77:2B:7A:15:E5:6E:75:95:CE:8A:D5:5D:52:60:E4
            X509v3 Authority Key Identifier: 
                keyid:B4:12:FD:E4:FC:77:2B:7A:15:E5:6E:75:95:CE:8A:D5:5D:52:60:E4

            X509v3 Basic Constraints: 
                CA:TRUE
    Signature Algorithm: sha1WithRSAEncryption
         67:5c:a4:b5:8e:ec:13:2e:5a:f6:28:72:d9:de:57:06:d5:8c:
         ce:7e:26:01:30:63:89:e2:39:04:c7:5c:0c:a4:5a:26:cc:4b:
         4b:b6:ee:86:10:fb:fe:01:95:54:66:f7:6a:e1:78:2f:5d:a0:
         97:17:36:71:a8:53:72:38:f8:b3:3b:24:69:64:f8:d5:a0:22:
         4b:45:4b:31:06:89:d9:cd:be:64:0a:94:31:46:34:d1:ac:95:
         19:e1:96:67:8d:0d:b4:8b:0d:8f:70:e5:5d:3e:8c:05:9d:fd:
         f5:20:67:c4:10:b2:fe:17:6d:fc:7a:21:8a:4a:59:c5:c2:b5:
         a0:95
-----BEGIN CERTIFICATE-----
MIICZDCCAc2gAwIBAgIJANbfT2nSoY/eMA0GCSqGSIb3DQEBBQUAMEsxCzAJBgNV
BAYTAlVTMREwDwYDVQQIDAhNaXNzb3VyaTETMBEGA1UECgwKU2lyaSBQcm94eTEU
MBIGA1UEAwwLU2lyaVByb3h5Q0EwHhcNMTQxMjI2MTgzODE5WhcNMTcxMjI1MTgz
ODE5WjBLMQswCQYDVQQGEwJVUzERMA8GA1UECAwITWlzc291cmkxEzARBgNVBAoM
ClNpcmkgUHJveHkxFDASBgNVBAMMC1NpcmlQcm94eUNBMIGfMA0GCSqGSIb3DQEB
AQUAA4GNADCBiQKBgQDQSsJ7HjVnj3mV0gLP83k3Dphz1evtElWM66KLuyJN4EB0
Mre9wL0RLJ5DNObqOQ9iw16kunMOysyCNj9saQ+AyB2Kc936hEgo8vM8WqGc3jM/
pk9NcxR8t6z+QD9KXEUWVhBrKcUJoQLgqPx4YTRTb1DHD5rf8y3EHc6zSbE3SwID
AQABo1AwTjAdBgNVHQ4EFgQUtBL95Px3K3oV5W51lc6K1V1SYOQwHwYDVR0jBBgw
FoAUtBL95Px3K3oV5W51lc6K1V1SYOQwDAYDVR0TBAUwAwEB/zANBgkqhkiG9w0B
AQUFAAOBgQBnXKS1juwTLlr2KHLZ3lcG1YzOfiYBMGOJ4jkEx1wMpFomzEtLtu6G
EPv+AZVUZvdq4XgvXaCXFzZxqFNyOPizOyRpZPjVoCJLRUsxBonZzb5kCpQxRjTR
rJUZ4ZZnjQ20iw2PcOVdPowFnf31IGfEELL+F238eiGKSlnFwrWglQ==
-----END CERTIFICATE-----
